gpasm-1.4.0 #1107 (Apr  3 2018) /media/user/s   2-13-2022  18:50:34         PAGE  1


LOC    OBJECT CODE    LINE  SOURCE TEXT
  VALUE

                      00001 ;Program compiled by Great Cow BASIC (0.98.<<>> 2021-<<>>-24 (Linux 64 bit) : Build 1005) for Microchip 
                            MPASM
                      00002 ;Need help? See the GCBASIC forums at http://sourceforge.net/projects/gcbasic/forums,
                      00003 ;check the documentation or email w_cholmondeley at users dot sourceforge dot net.
                      00004 
                      00005 ;********************************************************************************
                      00006 
                      00007 ;Set up the assembler options (Chip type, clock source, other bits and pieces)
                      00008  LIST p=16F886, r=DEC
                      00009 #include <P16F886.inc>
Warning[231]: Found lower case match for include filename.
                      00001         LIST
                      00002 
                      00003 ;==========================================================================
                      00004 ; Build date : Aug 07 2014
                      00005 ;  MPASM PIC16F886 processor include
                      00006 ; 
                      00007 ;  (c) Copyright 1999-2014 Microchip Technology, All rights reserved
                      00008 ;==========================================================================
                      00009 
                      00010         NOLIST
                      00011 
                      00012 ;==========================================================================
                      00013 ;  This header file defines configurations, registers, and other useful
                      00014 ;  bits of information for the PIC16F886 microcontroller.  These names
                      00015 ;  are taken to match the data sheets as closely as possible.
                      00016 ;
                      00017 ;  Note that the processor must be selected before this file is included.
                      00018 ;  The processor may be selected the following ways:
                      00019 ;
                      00020 ;       1. Command line switch:
                      00021 ;               C:\MPASM MYFILE.ASM /PIC16F886
                      00022 ;       2. LIST directive in the source file
                      00023 ;               LIST   P=PIC16F886
                      00024 ;       3. Processor Type entry in the MPASM full-screen interface
                      00025 ;       4. Setting the processor in the MPLAB Project Dialog
                      00026 ;==========================================================================
                      00027 
                      00028 ;==========================================================================
                      00029 ;
                      00030 ;       Verify Processor
                      00031 ;
                      00032 ;==========================================================================
                      00033         IFNDEF __16F886
                      00034            MESSG "Processor-header file mismatch.  Verify selected processor."
                      00035         ENDIF
                      00036 
                      00037 
                      00038 
                      00039 ;==========================================================================
                      00040 ;
                      00041 ;       Register Definitions
                      00042 ;
gpasm-1.4.0 #1107 (Apr  3 2018) /media/user/s   2-13-2022  18:50:34         PAGE  2


LOC    OBJECT CODE    LINE  SOURCE TEXT
  VALUE

                      00043 ;==========================================================================
                      00044 
  00000000            00045 W                EQU  H'0000'
  00000001            00046 F                EQU  H'0001'
                      00047 
                      00048 ;----- Register Files -----------------------------------------------------
                      00049 
                      00050 ;-----Bank0------------------
  00000000            00051 INDF             EQU  H'0000'
  00000001            00052 TMR0             EQU  H'0001'
  00000002            00053 PCL              EQU  H'0002'
  00000003            00054 STATUS           EQU  H'0003'
  00000004            00055 FSR              EQU  H'0004'
  00000005            00056 PORTA            EQU  H'0005'
  00000006            00057 PORTB            EQU  H'0006'
  00000007            00058 PORTC            EQU  H'0007'
  00000009            00059 PORTE            EQU  H'0009'
  0000000A            00060 PCLATH           EQU  H'000A'
  0000000B            00061 INTCON           EQU  H'000B'
  0000000C            00062 PIR1             EQU  H'000C'
  0000000D            00063 PIR2             EQU  H'000D'
  0000000E            00064 TMR1             EQU  H'000E'
  0000000E            00065 TMR1L            EQU  H'000E'
  0000000F            00066 TMR1H            EQU  H'000F'
  00000010            00067 T1CON            EQU  H'0010'
  00000011            00068 TMR2             EQU  H'0011'
  00000012            00069 T2CON            EQU  H'0012'
  00000013            00070 SSPBUF           EQU  H'0013'
  00000014            00071 SSPCON           EQU  H'0014'
  00000015            00072 CCPR1            EQU  H'0015'
  00000015            00073 CCPR1L           EQU  H'0015'
  00000016            00074 CCPR1H           EQU  H'0016'
  00000017            00075 CCP1CON          EQU  H'0017'
  00000018            00076 RCSTA            EQU  H'0018'
  00000019            00077 TXREG            EQU  H'0019'
  0000001A            00078 RCREG            EQU  H'001A'
  0000001B            00079 CCPR2            EQU  H'001B'
  0000001B            00080 CCPR2L           EQU  H'001B'
  0000001C            00081 CCPR2H           EQU  H'001C'
  0000001D            00082 CCP2CON          EQU  H'001D'
  0000001E            00083 ADRESH           EQU  H'001E'
  0000001F            00084 ADCON0           EQU  H'001F'
                      00085 
                      00086 ;-----Bank1------------------
  00000081            00087 OPTION_REG       EQU  H'0081'
  00000085            00088 TRISA            EQU  H'0085'
  00000086            00089 TRISB            EQU  H'0086'
  00000087            00090 TRISC            EQU  H'0087'
  00000089            00091 TRISE            EQU  H'0089'
  0000008C            00092 PIE1             EQU  H'008C'
  0000008D            00093 PIE2             EQU  H'008D'
  0000008E            00094 PCON             EQU  H'008E'
  0000008F            00095 OSCCON           EQU  H'008F'
gpasm-1.4.0 #1107 (Apr  3 2018) /media/user/s   2-13-2022  18:50:34         PAGE  3


LOC    OBJECT CODE    LINE  SOURCE TEXT
  VALUE

  00000090            00096 OSCTUNE          EQU  H'0090'
  00000091            00097 SSPCON2          EQU  H'0091'
  00000092            00098 PR2              EQU  H'0092'
  00000093            00099 MSK              EQU  H'0093'
  00000093            00100 SSPADD           EQU  H'0093'
  00000093            00101 SSPMSK           EQU  H'0093'
  00000094            00102 SSPSTAT          EQU  H'0094'
  00000095            00103 WPUB             EQU  H'0095'
  00000096            00104 IOCB             EQU  H'0096'
  00000097            00105 VRCON            EQU  H'0097'
  00000098            00106 TXSTA            EQU  H'0098'
  00000099            00107 SPBRG            EQU  H'0099'
  0000009A            00108 SPBRGH           EQU  H'009A'
  0000009B            00109 PWM1CON          EQU  H'009B'
  0000009C            00110 ECCPAS           EQU  H'009C'
  0000009D            00111 PSTRCON          EQU  H'009D'
  0000009E            00112 ADRESL           EQU  H'009E'
  0000009F            00113 ADCON1           EQU  H'009F'
                      00114 
                      00115 ;-----Bank2------------------
  00000105            00116 WDTCON           EQU  H'0105'
  00000107            00117 CM1CON0          EQU  H'0107'
  00000108            00118 CM2CON0          EQU  H'0108'
  00000109            00119 CM2CON1          EQU  H'0109'
  0000010C            00120 EEDAT            EQU  H'010C'
  0000010C            00121 EEDATA           EQU  H'010C'
  0000010D            00122 EEADR            EQU  H'010D'
  0000010E            00123 EEDATH           EQU  H'010E'
  0000010F            00124 EEADRH           EQU  H'010F'
                      00125 
                      00126 ;-----Bank3------------------
  00000185            00127 SRCON            EQU  H'0185'
  00000187            00128 BAUDCTL          EQU  H'0187'
  00000188            00129 ANSEL            EQU  H'0188'
  00000189            00130 ANSELH           EQU  H'0189'
  0000018C            00131 EECON1           EQU  H'018C'
  0000018D            00132 EECON2           EQU  H'018D'
                      00133 
                      00134 ;----- STATUS Bits -----------------------------------------------------
  00000000            00135 C                EQU  H'0000'
  00000001            00136 DC               EQU  H'0001'
  00000002            00137 Z                EQU  H'0002'
  00000003            00138 NOT_PD           EQU  H'0003'
  00000004            00139 NOT_TO           EQU  H'0004'
  00000007            00140 IRP              EQU  H'0007'
                      00141 
  00000005            00142 RP0              EQU  H'0005'
  00000006            00143 RP1              EQU  H'0006'
                      00144 
                      00145 
                      00146 ;----- PORTA Bits -----------------------------------------------------
  00000000            00147 RA0              EQU  H'0000'
  00000001            00148 RA1              EQU  H'0001'
gpasm-1.4.0 #1107 (Apr  3 2018) /media/user/s   2-13-2022  18:50:34         PAGE  4


LOC    OBJECT CODE    LINE  SOURCE TEXT
  VALUE

  00000002            00149 RA2              EQU  H'0002'
  00000003            00150 RA3              EQU  H'0003'
  00000004            00151 RA4              EQU  H'0004'
  00000005            00152 RA5              EQU  H'0005'
  00000006            00153 RA6              EQU  H'0006'
  00000007            00154 RA7              EQU  H'0007'
                      00155 
                      00156 
                      00157 ;----- PORTB Bits -----------------------------------------------------
  00000000            00158 RB0              EQU  H'0000'
  00000001            00159 RB1              EQU  H'0001'
  00000002            00160 RB2              EQU  H'0002'
  00000003            00161 RB3              EQU  H'0003'
  00000004            00162 RB4              EQU  H'0004'
  00000005            00163 RB5              EQU  H'0005'
  00000006            00164 RB6              EQU  H'0006'
  00000007            00165 RB7              EQU  H'0007'
                      00166 
                      00167 
                      00168 ;----- PORTC Bits -----------------------------------------------------
  00000000            00169 RC0              EQU  H'0000'
  00000001            00170 RC1              EQU  H'0001'
  00000002            00171 RC2              EQU  H'0002'
  00000003            00172 RC3              EQU  H'0003'
  00000004            00173 RC4              EQU  H'0004'
  00000005            00174 RC5              EQU  H'0005'
  00000006            00175 RC6              EQU  H'0006'
  00000007            00176 RC7              EQU  H'0007'
                      00177 
                      00178 
                      00179 ;----- PORTE Bits -----------------------------------------------------
  00000003            00180 RE3              EQU  H'0003'
                      00181 
                      00182 
                      00183 ;----- INTCON Bits -----------------------------------------------------
  00000000            00184 RBIF             EQU  H'0000'
  00000001            00185 INTF             EQU  H'0001'
  00000002            00186 T0IF             EQU  H'0002'
  00000003            00187 RBIE             EQU  H'0003'
  00000004            00188 INTE             EQU  H'0004'
  00000005            00189 T0IE             EQU  H'0005'
  00000006            00190 PEIE             EQU  H'0006'
  00000007            00191 GIE              EQU  H'0007'
                      00192 
  00000002            00193 TMR0IF           EQU  H'0002'
  00000005            00194 TMR0IE           EQU  H'0005'
                      00195 
                      00196 
                      00197 ;----- PIR1 Bits -----------------------------------------------------
  00000000            00198 TMR1IF           EQU  H'0000'
  00000001            00199 TMR2IF           EQU  H'0001'
  00000002            00200 CCP1IF           EQU  H'0002'
  00000003            00201 SSPIF            EQU  H'0003'
gpasm-1.4.0 #1107 (Apr  3 2018) /media/user/s   2-13-2022  18:50:34         PAGE  5


LOC    OBJECT CODE    LINE  SOURCE TEXT
  VALUE

  00000004            00202 TXIF             EQU  H'0004'
  00000005            00203 RCIF             EQU  H'0005'
  00000006            00204 ADIF             EQU  H'0006'
                      00205 
                      00206 
                      00207 ;----- PIR2 Bits -----------------------------------------------------
  00000000            00208 CCP2IF           EQU  H'0000'
  00000002            00209 ULPWUIF          EQU  H'0002'
  00000003            00210 BCLIF            EQU  H'0003'
  00000004            00211 EEIF             EQU  H'0004'
  00000005            00212 C1IF             EQU  H'0005'
  00000006            00213 C2IF             EQU  H'0006'
  00000007            00214 OSFIF            EQU  H'0007'
                      00215 
                      00216 
                      00217 ;----- T1CON Bits -----------------------------------------------------
  00000000            00218 TMR1ON           EQU  H'0000'
  00000001            00219 TMR1CS           EQU  H'0001'
  00000002            00220 NOT_T1SYNC       EQU  H'0002'
  00000003            00221 T1OSCEN          EQU  H'0003'
  00000006            00222 TMR1GE           EQU  H'0006'
  00000007            00223 T1GINV           EQU  H'0007'
                      00224 
  00000002            00225 T1INSYNC         EQU  H'0002'
  00000004            00226 T1CKPS0          EQU  H'0004'
  00000005            00227 T1CKPS1          EQU  H'0005'
  00000007            00228 T1GIV            EQU  H'0007'
                      00229 
  00000002            00230 T1SYNC           EQU  H'0002'
                      00231 
                      00232 
                      00233 ;----- T2CON Bits -----------------------------------------------------
  00000002            00234 TMR2ON           EQU  H'0002'
                      00235 
  00000000            00236 T2CKPS0          EQU  H'0000'
  00000001            00237 T2CKPS1          EQU  H'0001'
  00000003            00238 TOUTPS0          EQU  H'0003'
  00000004            00239 TOUTPS1          EQU  H'0004'
  00000005            00240 TOUTPS2          EQU  H'0005'
  00000006            00241 TOUTPS3          EQU  H'0006'
                      00242 
                      00243 
                      00244 ;----- SSPCON Bits -----------------------------------------------------
  00000004            00245 CKP              EQU  H'0004'
  00000005            00246 SSPEN            EQU  H'0005'
  00000006            00247 SSPOV            EQU  H'0006'
  00000007            00248 WCOL             EQU  H'0007'
                      00249 
  00000000            00250 SSPM0            EQU  H'0000'
  00000001            00251 SSPM1            EQU  H'0001'
  00000002            00252 SSPM2            EQU  H'0002'
  00000003            00253 SSPM3            EQU  H'0003'
                      00254 
gpasm-1.4.0 #1107 (Apr  3 2018) /media/user/s   2-13-2022  18:50:34         PAGE  6


LOC    OBJECT CODE    LINE  SOURCE TEXT
  VALUE

                      00255 
                      00256 ;----- CCP1CON Bits -----------------------------------------------------
  00000000            00257 CCP1M0           EQU  H'0000'
  00000001            00258 CCP1M1           EQU  H'0001'
  00000002            00259 CCP1M2           EQU  H'0002'
  00000003            00260 CCP1M3           EQU  H'0003'
  00000004            00261 DC1B0            EQU  H'0004'
  00000005            00262 DC1B1            EQU  H'0005'
  00000006            00263 P1M0             EQU  H'0006'
  00000007            00264 P1M1             EQU  H'0007'
                      00265 
  00000004            00266 CCP1Y            EQU  H'0004'
  00000005            00267 CCP1X            EQU  H'0005'
                      00268 
                      00269 
                      00270 ;----- RCSTA Bits -----------------------------------------------------
  00000000            00271 RX9D             EQU  H'0000'
  00000001            00272 OERR             EQU  H'0001'
  00000002            00273 FERR             EQU  H'0002'
  00000003            00274 ADDEN            EQU  H'0003'
  00000004            00275 CREN             EQU  H'0004'
  00000005            00276 SREN             EQU  H'0005'
  00000006            00277 RX9              EQU  H'0006'
  00000007            00278 SPEN             EQU  H'0007'
                      00279 
  00000000            00280 RCD8             EQU  H'0000'
  00000006            00281 RC9              EQU  H'0006'
                      00282 
  00000006            00283 NOT_RC8          EQU  H'0006'
                      00284 
  00000006            00285 RC8_9            EQU  H'0006'
                      00286 
                      00287 
                      00288 ;----- CCP2CON Bits -----------------------------------------------------
  00000004            00289 DC2B0            EQU  H'0004'
  00000005            00290 DC2B1            EQU  H'0005'
                      00291 
  00000000            00292 CCP2M0           EQU  H'0000'
  00000001            00293 CCP2M1           EQU  H'0001'
  00000002            00294 CCP2M2           EQU  H'0002'
  00000003            00295 CCP2M3           EQU  H'0003'
  00000004            00296 CCP2Y            EQU  H'0004'
  00000005            00297 CCP2X            EQU  H'0005'
                      00298 
                      00299 
                      00300 ;----- ADCON0 Bits -----------------------------------------------------
  00000000            00301 ADON             EQU  H'0000'
  00000001            00302 GO_NOT_DONE      EQU  H'0001'
                      00303 
  00000001            00304 GO               EQU  H'0001'
  00000002            00305 CHS0             EQU  H'0002'
  00000003            00306 CHS1             EQU  H'0003'
  00000004            00307 CHS2             EQU  H'0004'
gpasm-1.4.0 #1107 (Apr  3 2018) /media/user/s   2-13-2022  18:50:34         PAGE  7


LOC    OBJECT CODE    LINE  SOURCE TEXT
  VALUE

  00000005            00308 CHS3             EQU  H'0005'
  00000006            00309 ADCS0            EQU  H'0006'
  00000007            00310 ADCS1            EQU  H'0007'
                      00311 
  00000001            00312 NOT_DONE         EQU  H'0001'
                      00313 
  00000001            00314 GO_DONE          EQU  H'0001'
                      00315 
                      00316 
                      00317 ;----- OPTION_REG Bits -----------------------------------------------------
  00000003            00318 PSA              EQU  H'0003'
  00000004            00319 T0SE             EQU  H'0004'
  00000005            00320 T0CS             EQU  H'0005'
  00000006            00321 INTEDG           EQU  H'0006'
  00000007            00322 NOT_RBPU         EQU  H'0007'
                      00323 
  00000000            00324 PS0              EQU  H'0000'
  00000001            00325 PS1              EQU  H'0001'
  00000002            00326 PS2              EQU  H'0002'
                      00327 
                      00328 
                      00329 ;----- TRISA Bits -----------------------------------------------------
  00000000            00330 TRISA0           EQU  H'0000'
  00000001            00331 TRISA1           EQU  H'0001'
  00000002            00332 TRISA2           EQU  H'0002'
  00000003            00333 TRISA3           EQU  H'0003'
  00000004            00334 TRISA4           EQU  H'0004'
  00000005            00335 TRISA5           EQU  H'0005'
  00000006            00336 TRISA6           EQU  H'0006'
  00000007            00337 TRISA7           EQU  H'0007'
                      00338 
                      00339 
                      00340 ;----- TRISB Bits -----------------------------------------------------
  00000000            00341 TRISB0           EQU  H'0000'
  00000001            00342 TRISB1           EQU  H'0001'
  00000002            00343 TRISB2           EQU  H'0002'
  00000003            00344 TRISB3           EQU  H'0003'
  00000004            00345 TRISB4           EQU  H'0004'
  00000005            00346 TRISB5           EQU  H'0005'
  00000006            00347 TRISB6           EQU  H'0006'
  00000007            00348 TRISB7           EQU  H'0007'
                      00349 
                      00350 
                      00351 ;----- TRISC Bits -----------------------------------------------------
  00000000            00352 TRISC0           EQU  H'0000'
  00000001            00353 TRISC1           EQU  H'0001'
  00000002            00354 TRISC2           EQU  H'0002'
  00000003            00355 TRISC3           EQU  H'0003'
  00000004            00356 TRISC4           EQU  H'0004'
  00000005            00357 TRISC5           EQU  H'0005'
  00000006            00358 TRISC6           EQU  H'0006'
  00000007            00359 TRISC7           EQU  H'0007'
                      00360 
gpasm-1.4.0 #1107 (Apr  3 2018) /media/user/s   2-13-2022  18:50:34         PAGE  8


LOC    OBJECT CODE    LINE  SOURCE TEXT
  VALUE

                      00361 
                      00362 ;----- TRISE Bits -----------------------------------------------------
  00000003            00363 TRISE3           EQU  H'0003'
                      00364 
                      00365 
                      00366 ;----- PIE1 Bits -----------------------------------------------------
  00000000            00367 TMR1IE           EQU  H'0000'
  00000001            00368 TMR2IE           EQU  H'0001'
  00000002            00369 CCP1IE           EQU  H'0002'
  00000003            00370 SSPIE            EQU  H'0003'
  00000004            00371 TXIE             EQU  H'0004'
  00000005            00372 RCIE             EQU  H'0005'
  00000006            00373 ADIE             EQU  H'0006'
                      00374 
                      00375 
                      00376 ;----- PIE2 Bits -----------------------------------------------------
  00000000            00377 CCP2IE           EQU  H'0000'
  00000002            00378 ULPWUIE          EQU  H'0002'
  00000003            00379 BCLIE            EQU  H'0003'
  00000004            00380 EEIE             EQU  H'0004'
  00000005            00381 C1IE             EQU  H'0005'
  00000006            00382 C2IE             EQU  H'0006'
  00000007            00383 OSFIE            EQU  H'0007'
                      00384 
                      00385 
                      00386 ;----- PCON Bits -----------------------------------------------------
  00000000            00387 NOT_BOR          EQU  H'0000'
  00000001            00388 NOT_POR          EQU  H'0001'
  00000004            00389 SBOREN           EQU  H'0004'
  00000005            00390 ULPWUE           EQU  H'0005'
                      00391 
  00000000            00392 NOT_BO           EQU  H'0000'
                      00393 
                      00394 
                      00395 ;----- OSCCON Bits -----------------------------------------------------
  00000000            00396 SCS              EQU  H'0000'
  00000001            00397 LTS              EQU  H'0001'
  00000002            00398 HTS              EQU  H'0002'
  00000003            00399 OSTS             EQU  H'0003'
                      00400 
  00000004            00401 IRCF0            EQU  H'0004'
  00000005            00402 IRCF1            EQU  H'0005'
  00000006            00403 IRCF2            EQU  H'0006'
                      00404 
                      00405 
                      00406 ;----- OSCTUNE Bits -----------------------------------------------------
  00000000            00407 TUN0             EQU  H'0000'
  00000001            00408 TUN1             EQU  H'0001'
  00000002            00409 TUN2             EQU  H'0002'
  00000003            00410 TUN3             EQU  H'0003'
  00000004            00411 TUN4             EQU  H'0004'
                      00412 
                      00413 
gpasm-1.4.0 #1107 (Apr  3 2018) /media/user/s   2-13-2022  18:50:34         PAGE  9


LOC    OBJECT CODE    LINE  SOURCE TEXT
  VALUE

                      00414 ;----- SSPCON2 Bits -----------------------------------------------------
  00000000            00415 SEN              EQU  H'0000'
  00000001            00416 RSEN             EQU  H'0001'
  00000002            00417 PEN              EQU  H'0002'
  00000003            00418 RCEN             EQU  H'0003'
  00000004            00419 ACKEN            EQU  H'0004'
  00000005            00420 ACKDT            EQU  H'0005'
  00000006            00421 ACKSTAT          EQU  H'0006'
  00000007            00422 GCEN             EQU  H'0007'
                      00423 
                      00424 
                      00425 ;----- MSK Bits -----------------------------------------------------
  00000000            00426 MSK0             EQU  H'0000'
  00000001            00427 MSK1             EQU  H'0001'
  00000002            00428 MSK2             EQU  H'0002'
  00000003            00429 MSK3             EQU  H'0003'
  00000004            00430 MSK4             EQU  H'0004'
  00000005            00431 MSK5             EQU  H'0005'
  00000006            00432 MSK6             EQU  H'0006'
  00000007            00433 MSK7             EQU  H'0007'
                      00434 
                      00435 
                      00436 ;----- SSPMSK Bits -----------------------------------------------------
  00000000            00437 MSK0             EQU  H'0000'
  00000001            00438 MSK1             EQU  H'0001'
  00000002            00439 MSK2             EQU  H'0002'
  00000003            00440 MSK3             EQU  H'0003'
  00000004            00441 MSK4             EQU  H'0004'
  00000005            00442 MSK5             EQU  H'0005'
  00000006            00443 MSK6             EQU  H'0006'
  00000007            00444 MSK7             EQU  H'0007'
                      00445 
                      00446 
                      00447 ;----- SSPSTAT Bits -----------------------------------------------------
  00000000            00448 BF               EQU  H'0000'
  00000001            00449 UA               EQU  H'0001'
  00000002            00450 R_NOT_W          EQU  H'0002'
  00000003            00451 S                EQU  H'0003'
  00000004            00452 P                EQU  H'0004'
  00000005            00453 D_NOT_A          EQU  H'0005'
  00000006            00454 CKE              EQU  H'0006'
  00000007            00455 SMP              EQU  H'0007'
                      00456 
  00000002            00457 R                EQU  H'0002'
  00000005            00458 D                EQU  H'0005'
                      00459 
  00000002            00460 I2C_READ         EQU  H'0002'
  00000003            00461 I2C_START        EQU  H'0003'
  00000004            00462 I2C_STOP         EQU  H'0004'
  00000005            00463 I2C_DATA         EQU  H'0005'
                      00464 
  00000002            00465 NOT_W            EQU  H'0002'
  00000005            00466 NOT_A            EQU  H'0005'
gpasm-1.4.0 #1107 (Apr  3 2018) /media/user/s   2-13-2022  18:50:34         PAGE 10


LOC    OBJECT CODE    LINE  SOURCE TEXT
  VALUE

                      00467 
  00000002            00468 NOT_WRITE        EQU  H'0002'
  00000005            00469 NOT_ADDRESS      EQU  H'0005'
                      00470 
  00000002            00471 R_W              EQU  H'0002'
  00000005            00472 D_A              EQU  H'0005'
                      00473 
  00000002            00474 READ_WRITE       EQU  H'0002'
  00000005            00475 DATA_ADDRESS     EQU  H'0005'
                      00476 
                      00477 
                      00478 ;----- WPUB Bits -----------------------------------------------------
  00000000            00479 WPUB0            EQU  H'0000'
  00000001            00480 WPUB1            EQU  H'0001'
  00000002            00481 WPUB2            EQU  H'0002'
  00000003            00482 WPUB3            EQU  H'0003'
  00000004            00483 WPUB4            EQU  H'0004'
  00000005            00484 WPUB5            EQU  H'0005'
  00000006            00485 WPUB6            EQU  H'0006'
  00000007            00486 WPUB7            EQU  H'0007'
                      00487 
                      00488 
                      00489 ;----- IOCB Bits -----------------------------------------------------
  00000000            00490 IOCB0            EQU  H'0000'
  00000001            00491 IOCB1            EQU  H'0001'
  00000002            00492 IOCB2            EQU  H'0002'
  00000003            00493 IOCB3            EQU  H'0003'
  00000004            00494 IOCB4            EQU  H'0004'
  00000005            00495 IOCB5            EQU  H'0005'
  00000006            00496 IOCB6            EQU  H'0006'
  00000007            00497 IOCB7            EQU  H'0007'
                      00498 
                      00499 
                      00500 ;----- VRCON Bits -----------------------------------------------------
  00000004            00501 VRSS             EQU  H'0004'
  00000005            00502 VRR              EQU  H'0005'
  00000006            00503 VROE             EQU  H'0006'
  00000007            00504 VREN             EQU  H'0007'
                      00505 
  00000000            00506 VR0              EQU  H'0000'
  00000001            00507 VR1              EQU  H'0001'
  00000002            00508 VR2              EQU  H'0002'
  00000003            00509 VR3              EQU  H'0003'
                      00510 
                      00511 
                      00512 ;----- TXSTA Bits -----------------------------------------------------
  00000000            00513 TX9D             EQU  H'0000'
  00000001            00514 TRMT             EQU  H'0001'
  00000002            00515 BRGH             EQU  H'0002'
  00000003            00516 SENDB            EQU  H'0003'
  00000004            00517 SYNC             EQU  H'0004'
  00000005            00518 TXEN             EQU  H'0005'
  00000006            00519 TX9              EQU  H'0006'
gpasm-1.4.0 #1107 (Apr  3 2018) /media/user/s   2-13-2022  18:50:34         PAGE 11


LOC    OBJECT CODE    LINE  SOURCE TEXT
  VALUE

  00000007            00520 CSRC             EQU  H'0007'
                      00521 
  00000000            00522 TXD8             EQU  H'0000'
  00000006            00523 NOT_TX8          EQU  H'0006'
                      00524 
  00000006            00525 TX8_9            EQU  H'0006'
                      00526 
                      00527 
                      00528 ;----- SPBRG Bits -----------------------------------------------------
  00000000            00529 BRG0             EQU  H'0000'
  00000001            00530 BRG1             EQU  H'0001'
  00000002            00531 BRG2             EQU  H'0002'
  00000003            00532 BRG3             EQU  H'0003'
  00000004            00533 BRG4             EQU  H'0004'
  00000005            00534 BRG5             EQU  H'0005'
  00000006            00535 BRG6             EQU  H'0006'
  00000007            00536 BRG7             EQU  H'0007'
                      00537 
                      00538 
                      00539 ;----- SPBRGH Bits -----------------------------------------------------
  00000000            00540 BRG8             EQU  H'0000'
  00000001            00541 BRG9             EQU  H'0001'
  00000002            00542 BRG10            EQU  H'0002'
  00000003            00543 BRG11            EQU  H'0003'
  00000004            00544 BRG12            EQU  H'0004'
  00000005            00545 BRG13            EQU  H'0005'
  00000006            00546 BRG14            EQU  H'0006'
  00000007            00547 BRG15            EQU  H'0007'
                      00548 
                      00549 
                      00550 ;----- PWM1CON Bits -----------------------------------------------------
  00000007            00551 PRSEN            EQU  H'0007'
                      00552 
  00000000            00553 PDC0             EQU  H'0000'
  00000001            00554 PDC1             EQU  H'0001'
  00000002            00555 PDC2             EQU  H'0002'
  00000003            00556 PDC3             EQU  H'0003'
  00000004            00557 PDC4             EQU  H'0004'
  00000005            00558 PDC5             EQU  H'0005'
  00000006            00559 PDC6             EQU  H'0006'
                      00560 
                      00561 
                      00562 ;----- ECCPAS Bits -----------------------------------------------------
  00000007            00563 ECCPASE          EQU  H'0007'
                      00564 
  00000000            00565 PSSBD0           EQU  H'0000'
  00000001            00566 PSSBD1           EQU  H'0001'
  00000002            00567 PSSAC0           EQU  H'0002'
  00000003            00568 PSSAC1           EQU  H'0003'
  00000004            00569 ECCPAS0          EQU  H'0004'
  00000005            00570 ECCPAS1          EQU  H'0005'
  00000006            00571 ECCPAS2          EQU  H'0006'
                      00572 
gpasm-1.4.0 #1107 (Apr  3 2018) /media/user/s   2-13-2022  18:50:34         PAGE 12


LOC    OBJECT CODE    LINE  SOURCE TEXT
  VALUE

                      00573 
                      00574 ;----- PSTRCON Bits -----------------------------------------------------
  00000000            00575 STRA             EQU  H'0000'
  00000001            00576 STRB             EQU  H'0001'
  00000002            00577 STRC             EQU  H'0002'
  00000003            00578 STRD             EQU  H'0003'
  00000004            00579 STRSYNC          EQU  H'0004'
                      00580 
                      00581 
                      00582 ;----- ADCON1 Bits -----------------------------------------------------
  00000004            00583 VCFG0            EQU  H'0004'
  00000005            00584 VCFG1            EQU  H'0005'
  00000007            00585 ADFM             EQU  H'0007'
                      00586 
                      00587 
                      00588 ;----- WDTCON Bits -----------------------------------------------------
  00000000            00589 SWDTEN           EQU  H'0000'
                      00590 
  00000001            00591 WDTPS0           EQU  H'0001'
  00000002            00592 WDTPS1           EQU  H'0002'
  00000003            00593 WDTPS2           EQU  H'0003'
  00000004            00594 WDTPS3           EQU  H'0004'
                      00595 
                      00596 
                      00597 ;----- CM1CON0 Bits -----------------------------------------------------
  00000002            00598 C1R              EQU  H'0002'
  00000004            00599 C1POL            EQU  H'0004'
  00000005            00600 C1OE             EQU  H'0005'
  00000006            00601 C1OUT            EQU  H'0006'
  00000007            00602 C1ON             EQU  H'0007'
                      00603 
  00000000            00604 C1CH0            EQU  H'0000'
  00000001            00605 C1CH1            EQU  H'0001'
                      00606 
                      00607 
                      00608 ;----- CM2CON0 Bits -----------------------------------------------------
  00000002            00609 C2R              EQU  H'0002'
  00000004            00610 C2POL            EQU  H'0004'
  00000005            00611 C2OE             EQU  H'0005'
  00000006            00612 C2OUT            EQU  H'0006'
  00000007            00613 C2ON             EQU  H'0007'
                      00614 
  00000000            00615 C2CH0            EQU  H'0000'
  00000001            00616 C2CH1            EQU  H'0001'
                      00617 
                      00618 
                      00619 ;----- CM2CON1 Bits -----------------------------------------------------
  00000000            00620 C2SYNC           EQU  H'0000'
  00000001            00621 T1GSS            EQU  H'0001'
  00000004            00622 C2RSEL           EQU  H'0004'
  00000005            00623 C1RSEL           EQU  H'0005'
  00000006            00624 MC2OUT           EQU  H'0006'
  00000007            00625 MC1OUT           EQU  H'0007'
gpasm-1.4.0 #1107 (Apr  3 2018) /media/user/s   2-13-2022  18:50:34         PAGE 13


LOC    OBJECT CODE    LINE  SOURCE TEXT
  VALUE

                      00626 
                      00627 
                      00628 ;----- SRCON Bits -----------------------------------------------------
  00000000            00629 FVREN            EQU  H'0000'
  00000002            00630 PULSR            EQU  H'0002'
  00000003            00631 PULSS            EQU  H'0003'
  00000004            00632 C2REN            EQU  H'0004'
  00000005            00633 C1SEN            EQU  H'0005'
  00000006            00634 SR0              EQU  H'0006'
  00000007            00635 SR1              EQU  H'0007'
                      00636 
                      00637 
                      00638 ;----- BAUDCTL Bits -----------------------------------------------------
  00000000            00639 ABDEN            EQU  H'0000'
  00000001            00640 WUE              EQU  H'0001'
  00000003            00641 BRG16            EQU  H'0003'
  00000004            00642 SCKP             EQU  H'0004'
  00000006            00643 RCIDL            EQU  H'0006'
  00000007            00644 ABDOVF           EQU  H'0007'
                      00645 
                      00646 
                      00647 ;----- ANSEL Bits -----------------------------------------------------
  00000000            00648 ANS0             EQU  H'0000'
  00000001            00649 ANS1             EQU  H'0001'
  00000002            00650 ANS2             EQU  H'0002'
  00000003            00651 ANS3             EQU  H'0003'
  00000004            00652 ANS4             EQU  H'0004'
                      00653 
                      00654 
                      00655 ;----- ANSELH Bits -----------------------------------------------------
  00000000            00656 ANS8             EQU  H'0000'
  00000001            00657 ANS9             EQU  H'0001'
  00000002            00658 ANS10            EQU  H'0002'
  00000003            00659 ANS11            EQU  H'0003'
  00000004            00660 ANS12            EQU  H'0004'
  00000005            00661 ANS13            EQU  H'0005'
                      00662 
                      00663 
                      00664 ;----- EECON1 Bits -----------------------------------------------------
  00000000            00665 RD               EQU  H'0000'
  00000001            00666 WR               EQU  H'0001'
  00000002            00667 WREN             EQU  H'0002'
  00000003            00668 WRERR            EQU  H'0003'
  00000007            00669 EEPGD            EQU  H'0007'
                      00670 
                      00671 
                      00672 
                      00673 
                      00674 ;==========================================================================
                      00675 ;
                      00676 ;       RAM Definitions
                      00677 ;
                      00678 ;==========================================================================
gpasm-1.4.0 #1107 (Apr  3 2018) /media/user/s   2-13-2022  18:50:34         PAGE 14


LOC    OBJECT CODE    LINE  SOURCE TEXT
  VALUE

  000001FF            00679        __MAXRAM  H'01FF'
                      00680        __BADRAM  H'0008'
                      00681        __BADRAM  H'0088'
                      00682        __BADRAM  H'018E'-H'018F'
                      00683 
                      00684 ;==========================================================================
                      00685 ;
                      00686 ;       Configuration Bits
                      00687 ;
                      00688 ;   NAME            Address
                      00689 ;   CONFIG1           2007h
                      00690 ;   CONFIG2           2008h
                      00691 ;
                      00692 ;==========================================================================
                      00693 
                      00694 ; The following is an assignment of address values for all of the
                      00695 ; configuration registers for the purpose of table reads
  00002007            00696 _CONFIG1         EQU  H'2007'
  00002008            00697 _CONFIG2         EQU  H'2008'
                      00698 
                      00699 ;----- CONFIG1 Options --------------------------------------------------
  00003FF8            00700 _FOSC_LP             EQU  H'3FF8'    ; LP oscillator: Low-power crystal on RA6/OSC2/CLKOUT and RA7/OSC1/
                            CLKIN
  00003FF8            00701 _LP_OSC              EQU  H'3FF8'    ; LP oscillator: Low-power crystal on RA6/OSC2/CLKOUT and RA7/OSC1/
                            CLKIN
  00003FF9            00702 _FOSC_XT             EQU  H'3FF9'    ; XT oscillator: Crystal/resonator on RA6/OSC2/CLKOUT and RA7/OSC1/
                            CLKIN
  00003FF9            00703 _XT_OSC              EQU  H'3FF9'    ; XT oscillator: Crystal/resonator on RA6/OSC2/CLKOUT and RA7/OSC1/
                            CLKIN
  00003FFA            00704 _FOSC_HS             EQU  H'3FFA'    ; HS oscillator: High-speed crystal/resonator on RA6/OSC2/CLKOUT an
                            d RA7/OSC1/CLKIN
  00003FFA            00705 _HS_OSC              EQU  H'3FFA'    ; HS oscillator: High-speed crystal/resonator on RA6/OSC2/CLKOUT an
                            d RA7/OSC1/CLKIN
  00003FFB            00706 _FOSC_EC             EQU  H'3FFB'    ; EC: I/O function on RA6/OSC2/CLKOUT pin, CLKIN on RA7/OSC1/CLKIN
  00003FFB            00707 _EC_OSC              EQU  H'3FFB'    ; EC: I/O function on RA6/OSC2/CLKOUT pin, CLKIN on RA7/OSC1/CLKIN
  00003FFC            00708 _FOSC_INTRC_NOCLKOUT EQU  H'3FFC'    ; INTOSCIO oscillator: I/O function on RA6/OSC2/CLKOUT pin, I/O fun
                            ction on RA7/OSC1/CLKIN
  00003FFC            00709 _INTRC_OSC_NOCLKOUT  EQU  H'3FFC'    ; INTOSCIO oscillator: I/O function on RA6/OSC2/CLKOUT pin, I/O fun
                            ction on RA7/OSC1/CLKIN
  00003FFC            00710 _INTOSCIO            EQU  H'3FFC'    ; INTOSCIO oscillator: I/O function on RA6/OSC2/CLKOUT pin, I/O fun
                            ction on RA7/OSC1/CLKIN
  00003FFD            00711 _FOSC_INTRC_CLKOUT   EQU  H'3FFD'    ; INTOSC oscillator: CLKOUT function on RA6/OSC2/CLKOUT pin, I/O fu
                            nction on RA7/OSC1/CLKIN
  00003FFD            00712 _INTRC_OSC_CLKOUT    EQU  H'3FFD'    ; INTOSC oscillator: CLKOUT function on RA6/OSC2/CLKOUT pin, I/O fu
                            nction on RA7/OSC1/CLKIN
  00003FFD            00713 _INTOSC              EQU  H'3FFD'    ; INTOSC oscillator: CLKOUT function on RA6/OSC2/CLKOUT pin, I/O fu
                            nction on RA7/OSC1/CLKIN
  00003FFE            00714 _FOSC_EXTRC_NOCLKOUT EQU  H'3FFE'    ; RCIO oscillator: I/O function on RA6/OSC2/CLKOUT pin, RC on RA7/O
                            SC1/CLKIN
  00003FFE            00715 _EXTRC_OSC_NOCLKOUT  EQU  H'3FFE'    ; RCIO oscillator: I/O function on RA6/OSC2/CLKOUT pin, RC on RA7/O
                            SC1/CLKIN
  00003FFE            00716 _EXTRCIO             EQU  H'3FFE'    ; RCIO oscillator: I/O function on RA6/OSC2/CLKOUT pin, RC on RA7/O
                            SC1/CLKIN
gpasm-1.4.0 #1107 (Apr  3 2018) /media/user/s   2-13-2022  18:50:34         PAGE 15


LOC    OBJECT CODE    LINE  SOURCE TEXT
  VALUE

  00003FFF            00717 _FOSC_EXTRC_CLKOUT   EQU  H'3FFF'    ; RC oscillator: CLKOUT function on RA6/OSC2/CLKOUT pin, RC on RA7/
                            OSC1/CLKIN
  00003FFF            00718 _EXTRC_OSC_CLKOUT    EQU  H'3FFF'    ; RC oscillator: CLKOUT function on RA6/OSC2/CLKOUT pin, RC on RA7/
                            OSC1/CLKIN
  00003FFF            00719 _EXTRC               EQU  H'3FFF'    ; RC oscillator: CLKOUT function on RA6/OSC2/CLKOUT pin, RC on RA7/
                            OSC1/CLKIN
                      00720 
  00003FF7            00721 _WDTE_OFF            EQU  H'3FF7'    ; WDT disabled and can be enabled by SWDTEN bit of the WDTCON regis
                            ter
  00003FF7            00722 _WDT_OFF             EQU  H'3FF7'    ; WDT disabled and can be enabled by SWDTEN bit of the WDTCON regis
                            ter
  00003FFF            00723 _WDTE_ON             EQU  H'3FFF'    ; WDT enabled
  00003FFF            00724 _WDT_ON              EQU  H'3FFF'    ; WDT enabled
                      00725 
  00003FEF            00726 _PWRTE_ON            EQU  H'3FEF'    ; PWRT enabled
  00003FFF            00727 _PWRTE_OFF           EQU  H'3FFF'    ; PWRT disabled
                      00728 
  00003FDF            00729 _MCLRE_OFF           EQU  H'3FDF'    ; RE3/MCLR pin function is digital input, MCLR internally tied to V
                            DD
  00003FFF            00730 _MCLRE_ON            EQU  H'3FFF'    ; RE3/MCLR pin function is MCLR
                      00731 
  00003FBF            00732 _CP_ON               EQU  H'3FBF'    ; Program memory code protection is enabled
  00003FFF            00733 _CP_OFF              EQU  H'3FFF'    ; Program memory code protection is disabled
                      00734 
  00003F7F            00735 _CPD_ON              EQU  H'3F7F'    ; Data memory code protection is enabled
  00003FFF            00736 _CPD_OFF             EQU  H'3FFF'    ; Data memory code protection is disabled
                      00737 
  00003CFF            00738 _BOREN_OFF           EQU  H'3CFF'    ; BOR disabled
  00003CFF            00739 _BOR_OFF             EQU  H'3CFF'    ; BOR disabled
  00003DFF            00740 _BOREN_SBODEN        EQU  H'3DFF'    ; BOR controlled by SBOREN bit of the PCON register
  00003DFF            00741 _BOR_SBODEN          EQU  H'3DFF'    ; BOR controlled by SBOREN bit of the PCON register
  00003EFF            00742 _BOREN_NSLEEP        EQU  H'3EFF'    ; BOR enabled during operation and disabled in Sleep
  00003EFF            00743 _BOR_NSLEEP          EQU  H'3EFF'    ; BOR enabled during operation and disabled in Sleep
  00003FFF            00744 _BOREN_ON            EQU  H'3FFF'    ; BOR enabled
  00003FFF            00745 _BOR_ON              EQU  H'3FFF'    ; BOR enabled
                      00746 
  00003BFF            00747 _IESO_OFF            EQU  H'3BFF'    ; Internal/External Switchover mode is disabled
  00003FFF            00748 _IESO_ON             EQU  H'3FFF'    ; Internal/External Switchover mode is enabled
                      00749 
  000037FF            00750 _FCMEN_OFF           EQU  H'37FF'    ; Fail-Safe Clock Monitor is disabled
  00003FFF            00751 _FCMEN_ON            EQU  H'3FFF'    ; Fail-Safe Clock Monitor is enabled
                      00752 
  00002FFF            00753 _LVP_OFF             EQU  H'2FFF'    ; RB3 pin has digital I/O, HV on MCLR must be used for programming
  00003FFF            00754 _LVP_ON              EQU  H'3FFF'    ; RB3/PGM pin has PGM function, low voltage programming enabled
                      00755 
  00001FFF            00756 _DEBUG_ON            EQU  H'1FFF'    ; In_Circuit Debugger enabled, RB6/ICSPCLK and RB7/ICSPDAT are dedi
                            cated to the debugger
  00003FFF            00757 _DEBUG_OFF           EQU  H'3FFF'    ; In-Circuit Debugger disabled, RB6/ICSPCLK and RB7/ICSPDAT are gen
                            eral purpose I/O pins
                      00758 
                      00759 ;----- CONFIG2 Options --------------------------------------------------
  00003EFF            00760 _BOR4V_BOR21V        EQU  H'3EFF'    ; Brown-out Reset set to 2.1V
  00003EFF            00761 _BOR21V              EQU  H'3EFF'    ; Brown-out Reset set to 2.1V
gpasm-1.4.0 #1107 (Apr  3 2018) /media/user/s   2-13-2022  18:50:34         PAGE 16


LOC    OBJECT CODE    LINE  SOURCE TEXT
  VALUE

  00003FFF            00762 _BOR4V_BOR40V        EQU  H'3FFF'    ; Brown-out Reset set to 4.0V
  00003FFF            00763 _BOR40V              EQU  H'3FFF'    ; Brown-out Reset set to 4.0V
                      00764 
  000039FF            00765 _WRT_HALF            EQU  H'39FF'    ; 0000h to 0FFFh write protected, 1000h to 1FFFh may be modified by
                             EECON control
  00003BFF            00766 _WRT_1FOURTH         EQU  H'3BFF'    ; 0000h to 07FFh write protected, 0800h to 1FFFh may be modified by
                             EECON control
  00003DFF            00767 _WRT_256             EQU  H'3DFF'    ; 0000h to 00FFh write protected, 0100h to 1FFFh may be modified by
                             EECON control
  00003FFF            00768 _WRT_OFF             EQU  H'3FFF'    ; Write protection off
                      00769 
                      00770 ;----- DEVID Equates --------------------------------------------------
  00002006            00771 _DEVID1          EQU  H'2006'
                      00772 
                      00773 ;----- IDLOC Equates --------------------------------------------------
  00002000            00774 _IDLOC0          EQU  H'2000'
  00002001            00775 _IDLOC1          EQU  H'2001'
  00002002            00776 _IDLOC2          EQU  H'2002'
  00002003            00777 _IDLOC3          EQU  H'2003'
                      00778 
                      00779         LIST
2007   2FD2           00010  __CONFIG _CONFIG1, _LVP_OFF & _FCMEN_ON & _CPD_OFF & _CP_OFF & _MCLRE_OFF & _WDTE_OFF & _FOSC_HS
2008   3FFF           00011  __CONFIG _CONFIG2, _WRT_OFF
                      00012 
                      00013 ;********************************************************************************
                      00014 
                      00015 ;Set aside memory locations for variables
  00000020            00016 CNT                              EQU 32
  00000070            00017 DELAYTEMP                        EQU 112
  00000021            00018 NOTE                             EQU 33
  00000022            00019 NOTE_H                           EQU 34
  00000070            00020 SYSBYTETEMPX                     EQU 112
  00000074            00021 SYSDIVLOOP                       EQU 116
  00000077            00022 SYSDIVMULTA                      EQU 119
  00000078            00023 SYSDIVMULTA_H                    EQU 120
  0000007B            00024 SYSDIVMULTB                      EQU 123
  0000007C            00025 SYSDIVMULTB_H                    EQU 124
  00000072            00026 SYSDIVMULTX                      EQU 114
  00000073            00027 SYSDIVMULTX_H                    EQU 115
  00000077            00028 SYSSTRINGA                       EQU 119
  00000023            00029 SYSTEMP1                         EQU 35
  00000024            00030 SYSTEMP1_H                       EQU 36
  00000025            00031 SYSTEMP2                         EQU 37
  00000075            00032 SYSWAITTEMP10US                  EQU 117
  00000075            00033 SYSWORDTEMPA                     EQU 117
  00000076            00034 SYSWORDTEMPA_H                   EQU 118
  00000079            00035 SYSWORDTEMPB                     EQU 121
  0000007A            00036 SYSWORDTEMPB_H                   EQU 122
  00000070            00037 SYSWORDTEMPX                     EQU 112
  00000071            00038 SYSWORDTEMPX_H                   EQU 113
  00000026            00039 TONEDURATION                     EQU 38
  00000027            00040 TONEDURATION_H                   EQU 39
  00000028            00041 TONEFREQUENCY                    EQU 40
gpasm-1.4.0 #1107 (Apr  3 2018) /media/user/s   2-13-2022  18:50:34         PAGE 17


LOC    OBJECT CODE    LINE  SOURCE TEXT
  VALUE

  00000029            00042 TONEFREQUENCY_H                  EQU 41
  0000002A            00043 TONELOOP                         EQU 42
  0000002C            00044 TONELOOP2                        EQU 44
  0000002D            00045 TONELOOP2_H                      EQU 45
  0000002B            00046 TONELOOP_H                       EQU 43
  0000002E            00047 TONEPERIOD                       EQU 46
  0000002F            00048 TONEPERIOD_H                     EQU 47
                      00049 
                      00050 ;********************************************************************************
                      00051 
                      00052 ;Vectors
0000                  00053         ORG     0
0000   118A 120A      00054         pagesel BASPROGRAMSTART
0002   2805           00055         goto    BASPROGRAMSTART
0004                  00056         ORG     4
0004   0009           00057         retfie
                      00058 
                      00059 ;********************************************************************************
                      00060 
                      00061 ;Start of program memory page 0
0005                  00062         ORG     5
0005                  00063 BASPROGRAMSTART
                      00064 ;Call initialisation routines
0005   2034           00065         call    INITSYS
0006   202E           00066         call    INITSOUND
                      00067 
                      00068 ;Start of the main program
0007   1683 1303      00069         banksel TRISB
0009   1406           00070         bsf     TRISB,0
000A                  00071 SysDoLoop_S1
000A                  00072 HOLD
000A   1283 1303      00073         banksel PORTB
000C   1806           00074         btfsc   PORTB,0
000D   280A           00075         goto    HOLD
                      00076 ;Legacy method
000E   01A0           00077         clrf    CNT
000F                  00078 SysForLoop1
000F   0AA0           00079         incf    CNT,F
0010   0820           00080         movf    CNT,W
0011   00F7           00081         movwf   SYSSTRINGA
0012   2049           00082         call    MARY
0013   00A1           00083         movwf   NOTE
0014   0820           00084         movf    CNT,W
0015   00F7           00085         movwf   SYSSTRINGA
0016   2077           00086         call    MARY_H
0017   00A2           00087         movwf   NOTE_H
0018   0821           00088         movf    NOTE,W
0019   00A8           00089         movwf   TONEFREQUENCY
001A   0822           00090         movf    NOTE_H,W
001B   00A9           00091         movwf   TONEFREQUENCY_H
001C   3032           00092         movlw   50
001D   00A6           00093         movwf   TONEDURATION
001E   01A7           00094         clrf    TONEDURATION_H
gpasm-1.4.0 #1107 (Apr  3 2018) /media/user/s   2-13-2022  18:50:34         PAGE 18


LOC    OBJECT CODE    LINE  SOURCE TEXT
  VALUE

001F   20E8           00095         call    TONE
0020   3020           00096         movlw   32
0021   0220           00097         subwf   CNT,W
0022   1C03           00098         btfss   STATUS, C
0023   280F           00099         goto    SysForLoop1
0024                  00100 SysForLoopEnd1
0024   280A           00101         goto    SysDoLoop_S1
0025                  00102 SysDoLoop_E1
0025                  00103 BASPROGRAMEND
0025   0063           00104         sleep
0026   2825           00105         goto    BASPROGRAMEND
                      00106 
                      00107 ;********************************************************************************
                      00108 
0027                  00109 Delay_10US
0027                  00110 D10US_START
0027   300C           00111         movlw   12
0028   00F0           00112         movwf   DELAYTEMP
0029                  00113 DelayUS0
0029   0BF0           00114         decfsz  DELAYTEMP,F
002A   2829           00115         goto    DelayUS0
002B   0BF5           00116         decfsz  SysWaitTemp10US, F
002C   2827           00117         goto    D10US_START
002D   0008           00118         return
                      00119 
                      00120 ;********************************************************************************
                      00121 
002E                  00122 INITSOUND
002E   1683 1303      00123         banksel TRISC
0030   1107           00124         bcf     TRISC,2
0031   1283 1303      00125         banksel STATUS
0033   0008           00126         return
                      00127 
                      00128 ;********************************************************************************
                      00129 
0034                  00130 INITSYS
                      00131 ;asm showdebug _For_selected_frequency_-_the_external_oscillator_has_been_selected_by_compiler ChipMHz
                      00132 ;asm showdebug _Complete_the_chip_setup_of_BSR,ADCs,ANSEL_and_other_key_setup_registers_or_register_bits
0034   1683 1303      00133         banksel ADCON1
0036   139F           00134         bcf     ADCON1,ADFM
0037   1283 1303      00135         banksel ADCON0
0039   101F           00136         bcf     ADCON0,ADON
003A   1683 1703      00137         banksel ANSEL
003C   0188           00138         clrf    ANSEL
003D   0189           00139         clrf    ANSELH
003E   1283 1703      00140         banksel CM2CON0
0040   1388           00141         bcf     CM2CON0,C2ON
0041   1387           00142         bcf     CM1CON0,C1ON
0042   1283 1303      00143         banksel PORTA
0044   0185           00144         clrf    PORTA
0045   0186           00145         clrf    PORTB
0046   0187           00146         clrf    PORTC
0047   0189           00147         clrf    PORTE
gpasm-1.4.0 #1107 (Apr  3 2018) /media/user/s   2-13-2022  18:50:34         PAGE 19


LOC    OBJECT CODE    LINE  SOURCE TEXT
  VALUE

0048   0008           00148         return
                      00149 
                      00150 ;********************************************************************************
                      00151 
0049                  00152 MARY
0049   3021           00153         movlw   33
004A   0277           00154         subwf   SysStringA, W
004B   1803           00155         btfsc   STATUS, C
004C   3400           00156         retlw   0
004D   0877           00157         movf    SysStringA, W
004E   3E56           00158         addlw   low TABLEMARY
004F   00F7           00159         movwf   SysStringA
0050   3000           00160         movlw   high TABLEMARY
0051   1803           00161         btfsc   STATUS, C
0052   3E01           00162         addlw   1
0053   008A           00163         movwf   PCLATH
0054   0877           00164         movf    SysStringA, W
0055   0082           00165         movwf   PCL
0056                  00166 TABLEMARY
0056   3420           00167         retlw   32
0057   342A           00168         retlw   42
0058   34EE           00169         retlw   238
0059   34B8           00170         retlw   184
005A   34EE           00171         retlw   238
005B   342A           00172         retlw   42
005C   3400           00173         retlw   0
005D   342A           00174         retlw   42
005E   342A           00175         retlw   42
005F   34EE           00176         retlw   238
0060   3400           00177         retlw   0
0061   34EE           00178         retlw   238
0062   3400           00179         retlw   0
0063   34EE           00180         retlw   238
0064   342A           00181         retlw   42
0065   3493           00182         retlw   147
0066   3400           00183         retlw   0
0067   3493           00184         retlw   147
0068   342A           00185         retlw   42
0069   34EE           00186         retlw   238
006A   34B8           00187         retlw   184
006B   34EE           00188         retlw   238
006C   342A           00189         retlw   42
006D   3400           00190         retlw   0
006E   342A           00191         retlw   42
006F   3400           00192         retlw   0
0070   342A           00193         retlw   42
0071   34EE           00194         retlw   238
0072   3400           00195         retlw   0
0073   34EE           00196         retlw   238
0074   342A           00197         retlw   42
0075   34EE           00198         retlw   238
0076   34B8           00199         retlw   184
                      00200 
gpasm-1.4.0 #1107 (Apr  3 2018) /media/user/s   2-13-2022  18:50:34         PAGE 20


LOC    OBJECT CODE    LINE  SOURCE TEXT
  VALUE

                      00201 ;********************************************************************************
                      00202 
0077                  00203 MARY_H
0077   3021           00204         movlw   33
0078   0277           00205         subwf   SysStringA, W
0079   1803           00206         btfsc   STATUS, C
007A   3400           00207         retlw   0
007B   0877           00208         movf    SysStringA, W
007C   3E84           00209         addlw   low TABLEMARY_H
007D   00F7           00210         movwf   SysStringA
007E   3000           00211         movlw   high TABLEMARY_H
007F   1803           00212         btfsc   STATUS, C
0080   3E01           00213         addlw   1
0081   008A           00214         movwf   PCLATH
0082   0877           00215         movf    SysStringA, W
0083   0082           00216         movwf   PCL
0084                  00217 TABLEMARY_H
0084   3400           00218         retlw   0
0085   3402           00219         retlw   2
0086   3401           00220         retlw   1
0087   3401           00221         retlw   1
0088   3401           00222         retlw   1
0089   3402           00223         retlw   2
008A   3400           00224         retlw   0
008B   3402           00225         retlw   2
008C   3402           00226         retlw   2
008D   3401           00227         retlw   1
008E   3400           00228         retlw   0
008F   3401           00229         retlw   1
0090   3400           00230         retlw   0
0091   3401           00231         retlw   1
0092   3402           00232         retlw   2
0093   3402           00233         retlw   2
0094   3400           00234         retlw   0
0095   3402           00235         retlw   2
0096   3402           00236         retlw   2
0097   3401           00237         retlw   1
0098   3401           00238         retlw   1
0099   3401           00239         retlw   1
009A   3402           00240         retlw   2
009B   3400           00241         retlw   0
009C   3402           00242         retlw   2
009D   3400           00243         retlw   0
009E   3402           00244         retlw   2
009F   3401           00245         retlw   1
00A0   3400           00246         retlw   0
00A1   3401           00247         retlw   1
00A2   3402           00248         retlw   2
00A3   3401           00249         retlw   1
00A4   3401           00250         retlw   1
                      00251 
                      00252 ;********************************************************************************
                      00253 
gpasm-1.4.0 #1107 (Apr  3 2018) /media/user/s   2-13-2022  18:50:34         PAGE 21


LOC    OBJECT CODE    LINE  SOURCE TEXT
  VALUE

00A5                  00254 SYSCOMPEQUAL16
00A5   01F0           00255         clrf    SYSBYTETEMPX
00A6   0875           00256         movf    SYSWORDTEMPA, W
00A7   0279           00257         subwf   SYSWORDTEMPB, W
00A8   1D03           00258         btfss   STATUS, Z
00A9   0008           00259         return
00AA   0876           00260         movf    SYSWORDTEMPA_H, W
00AB   027A           00261         subwf   SYSWORDTEMPB_H, W
00AC   1D03           00262         btfss   STATUS, Z
00AD   0008           00263         return
00AE   09F0           00264         comf    SYSBYTETEMPX,F
00AF   0008           00265         return
                      00266 
                      00267 ;********************************************************************************
                      00268 
00B0                  00269 SYSDIVSUB16
00B0   0875           00270         movf    SYSWORDTEMPA,W
00B1   00F7           00271         movwf   SYSDIVMULTA
00B2   0876           00272         movf    SYSWORDTEMPA_H,W
00B3   00F8           00273         movwf   SYSDIVMULTA_H
00B4   0879           00274         movf    SYSWORDTEMPB,W
00B5   00FB           00275         movwf   SYSDIVMULTB
00B6   087A           00276         movf    SYSWORDTEMPB_H,W
00B7   00FC           00277         movwf   SYSDIVMULTB_H
00B8   01F2           00278         clrf    SYSDIVMULTX
00B9   01F3           00279         clrf    SYSDIVMULTX_H
00BA   087B           00280         movf    SYSDIVMULTB,W
00BB   00F5           00281         movwf   SysWORDTempA
00BC   087C           00282         movf    SYSDIVMULTB_H,W
00BD   00F6           00283         movwf   SysWORDTempA_H
00BE   01F9           00284         clrf    SysWORDTempB
00BF   01FA           00285         clrf    SysWORDTempB_H
00C0   20A5           00286         call    SYSCOMPEQUAL16
00C1   1C70           00287         btfss   SysByteTempX,0
00C2   28C6           00288         goto    ENDIF8
00C3   01F5           00289         clrf    SYSWORDTEMPA
00C4   01F6           00290         clrf    SYSWORDTEMPA_H
00C5   0008           00291         return
00C6                  00292 ENDIF8
00C6   3010           00293         movlw   16
00C7   00F4           00294         movwf   SYSDIVLOOP
00C8                  00295 SYSDIV16START
00C8   1003           00296         bcf     STATUS,C
00C9   0DF7           00297         rlf     SYSDIVMULTA,F
00CA   0DF8           00298         rlf     SYSDIVMULTA_H,F
00CB   0DF2           00299         rlf     SYSDIVMULTX,F
00CC   0DF3           00300         rlf     SYSDIVMULTX_H,F
00CD   087B           00301         movf    SYSDIVMULTB,W
00CE   02F2           00302         subwf   SYSDIVMULTX,F
00CF   087C           00303         movf    SYSDIVMULTB_H,W
00D0   1C03           00304         btfss   STATUS,C
00D1   0F7C           00305         incfsz  SYSDIVMULTB_H,W
00D2   02F3           00306         subwf   SYSDIVMULTX_H,F
gpasm-1.4.0 #1107 (Apr  3 2018) /media/user/s   2-13-2022  18:50:34         PAGE 22


LOC    OBJECT CODE    LINE  SOURCE TEXT
  VALUE

00D3   1477           00307         bsf     SYSDIVMULTA,0
00D4   1803           00308         btfsc   STATUS,C
00D5   28DD           00309         goto    ENDIF9
00D6   1077           00310         bcf     SYSDIVMULTA,0
00D7   087B           00311         movf    SYSDIVMULTB,W
00D8   07F2           00312         addwf   SYSDIVMULTX,F
00D9   087C           00313         movf    SYSDIVMULTB_H,W
00DA   1803           00314         btfsc   STATUS,C
00DB   0F7C           00315         incfsz  SYSDIVMULTB_H,W
00DC   07F3           00316         addwf   SYSDIVMULTX_H,F
00DD                  00317 ENDIF9
00DD   0BF4           00318         decfsz  SYSDIVLOOP, F
00DE   28C8           00319         goto    SYSDIV16START
00DF   0877           00320         movf    SYSDIVMULTA,W
00E0   00F5           00321         movwf   SYSWORDTEMPA
00E1   0878           00322         movf    SYSDIVMULTA_H,W
00E2   00F6           00323         movwf   SYSWORDTEMPA_H
00E3   0872           00324         movf    SYSDIVMULTX,W
00E4   00F0           00325         movwf   SYSWORDTEMPX
00E5   0873           00326         movf    SYSDIVMULTX_H,W
00E6   00F1           00327         movwf   SYSWORDTEMPX_H
00E7   0008           00328         return
                      00329 
                      00330 ;********************************************************************************
                      00331 
00E8                  00332 TONE
00E8   0828           00333         movf    TONEFREQUENCY,W
00E9   00F5           00334         movwf   SysWORDTempA
00EA   0829           00335         movf    TONEFREQUENCY_H,W
00EB   00F6           00336         movwf   SysWORDTempA_H
00EC   01F9           00337         clrf    SysWORDTempB
00ED   01FA           00338         clrf    SysWORDTempB_H
00EE   20A5           00339         call    SYSCOMPEQUAL16
00EF   1870           00340         btfsc   SysByteTempX,0
00F0   0008           00341         return
00F1   3050           00342         movlw   80
00F2   00F5           00343         movwf   SysWORDTempA
00F3   30C3           00344         movlw   195
00F4   00F6           00345         movwf   SysWORDTempA_H
00F5   0828           00346         movf    TONEFREQUENCY,W
00F6   00F9           00347         movwf   SysWORDTempB
00F7   0829           00348         movf    TONEFREQUENCY_H,W
00F8   00FA           00349         movwf   SysWORDTempB_H
00F9   20B0           00350         call    SYSDIVSUB16
00FA   0875           00351         movf    SysWORDTempA,W
00FB   00AE           00352         movwf   TONEPERIOD
00FC   0876           00353         movf    SysWORDTempA_H,W
00FD   00AF           00354         movwf   TONEPERIOD_H
00FE   0828           00355         movf    TONEFREQUENCY,W
00FF   00F5           00356         movwf   SysWORDTempA
0100   0829           00357         movf    TONEFREQUENCY_H,W
0101   00F6           00358         movwf   SysWORDTempA_H
0102   3064           00359         movlw   100
gpasm-1.4.0 #1107 (Apr  3 2018) /media/user/s   2-13-2022  18:50:34         PAGE 23


LOC    OBJECT CODE    LINE  SOURCE TEXT
  VALUE

0103   00F9           00360         movwf   SysWORDTempB
0104   01FA           00361         clrf    SysWORDTempB_H
0105   20B0           00362         call    SYSDIVSUB16
0106   0875           00363         movf    SysWORDTempA,W
0107   00A8           00364         movwf   TONEFREQUENCY
0108   0876           00365         movf    SysWORDTempA_H,W
0109   00A9           00366         movwf   TONEFREQUENCY_H
010A   3001           00367         movlw   1
010B   00AA           00368         movwf   TONELOOP
010C   01AB           00369         clrf    TONELOOP_H
010D                  00370 SysForLoop2
010D   3001           00371         movlw   1
010E   00AC           00372         movwf   TONELOOP2
010F   01AD           00373         clrf    TONELOOP2_H
0110                  00374 SysForLoop3
0110   1507           00375         bsf     PORTC,2
0111   082E           00376         movf    TONEPERIOD,W
0112   00F5           00377         movwf   SysWaitTemp10US
0113   2027           00378         call    Delay_10US
0114   1107           00379         bcf     PORTC,2
0115   082E           00380         movf    TONEPERIOD,W
0116   00F5           00381         movwf   SysWaitTemp10US
0117   2027           00382         call    Delay_10US
                      00383 ;#4p Positive value Step Handler in For-next statement
0118   082C           00384         movf    TONELOOP2,W
0119   0228           00385         subwf   TONEFREQUENCY,W
011A   00A3           00386         movwf   SysTemp1
011B   0829           00387         movf    TONEFREQUENCY_H,W
011C   00A4           00388         movwf   SysTemp1_H
011D   082D           00389         movf    TONELOOP2_H,W
011E   1C03           00390         btfss   STATUS,C
011F   0F2D           00391         incfsz  TONELOOP2_H,W
0120   02A4           00392         subwf   SysTemp1_H,F
0121   0823           00393         movf    SysTemp1,W
0122   00F5           00394         movwf   SysWORDTempA
0123   0824           00395         movf    SysTemp1_H,W
0124   00F6           00396         movwf   SysWORDTempA_H
0125   01F9           00397         clrf    SysWORDTempB
0126   01FA           00398         clrf    SysWORDTempB_H
0127   20A5           00399         call    SYSCOMPEQUAL16
0128   09F0           00400         comf    SysByteTempX,F
0129   1C70           00401         btfss   SysByteTempX,0
012A   292F           00402         goto    ENDIF4
                      00403 ;Set LoopVar to LoopVar + StepValue where StepValue is a positive value
012B   0AAC           00404         incf    TONELOOP2,F
012C   1903           00405         btfsc   STATUS,Z
012D   0AAD           00406         incf    TONELOOP2_H,F
012E   2910           00407         goto    SysForLoop3
                      00408 ;END IF
012F                  00409 ENDIF4
012F                  00410 SysForLoopEnd3
                      00411 ;#4p Positive value Step Handler in For-next statement
012F   082A           00412         movf    TONELOOP,W
gpasm-1.4.0 #1107 (Apr  3 2018) /media/user/s   2-13-2022  18:50:34         PAGE 24


LOC    OBJECT CODE    LINE  SOURCE TEXT
  VALUE

0130   0226           00413         subwf   TONEDURATION,W
0131   00A3           00414         movwf   SysTemp1
0132   0827           00415         movf    TONEDURATION_H,W
0133   00A4           00416         movwf   SysTemp1_H
0134   082B           00417         movf    TONELOOP_H,W
0135   1C03           00418         btfss   STATUS,C
0136   0F2B           00419         incfsz  TONELOOP_H,W
0137   02A4           00420         subwf   SysTemp1_H,F
0138   0823           00421         movf    SysTemp1,W
0139   00F5           00422         movwf   SysWORDTempA
013A   0824           00423         movf    SysTemp1_H,W
013B   00F6           00424         movwf   SysWORDTempA_H
013C   01F9           00425         clrf    SysWORDTempB
013D   01FA           00426         clrf    SysWORDTempB_H
013E   20A5           00427         call    SYSCOMPEQUAL16
013F   09F0           00428         comf    SysByteTempX,F
0140   1C70           00429         btfss   SysByteTempX,0
0141   2946           00430         goto    ENDIF6
                      00431 ;Set LoopVar to LoopVar + StepValue where StepValue is a positive value
0142   0AAA           00432         incf    TONELOOP,F
0143   1903           00433         btfsc   STATUS,Z
0144   0AAB           00434         incf    TONELOOP_H,F
0145   290D           00435         goto    SysForLoop2
                      00436 ;END IF
0146                  00437 ENDIF6
0146                  00438 SysForLoopEnd2
0146   0008           00439         return
                      00440 
                      00441 ;********************************************************************************
                      00442 
                      00443 ;Start of program memory page 1
0800                  00444         ORG     2048
                      00445 ;Start of program memory page 2
1000                  00446         ORG     4096
                      00447 ;Start of program memory page 3
1800                  00448         ORG     6144
                      00449 
                      00450  END
gpasm-1.4.0 #1107 (Apr  3 2018) /media/user/s   2-13-2022  18:50:34         PAGE 25


SYMBOL TABLE
  LABEL                             VALUE

ABDEN                             00000000
ABDOVF                            00000007
ACKDT                             00000005
ACKEN                             00000004
ACKSTAT                           00000006
ADCON0                            0000001F
ADCON1                            0000009F
ADCS0                             00000006
ADCS1                             00000007
ADDEN                             00000003
ADFM                              00000007
ADIE                              00000006
ADIF                              00000006
ADON                              00000000
ADRESH                            0000001E
ADRESL                            0000009E
ANS0                              00000000
ANS1                              00000001
ANS10                             00000002
ANS11                             00000003
ANS12                             00000004
ANS13                             00000005
ANS2                              00000002
ANS3                              00000003
ANS4                              00000004
ANS8                              00000000
ANS9                              00000001
ANSEL                             00000188
ANSELH                            00000189
BASPROGRAMEND                     00000025
BASPROGRAMSTART                   00000005
BAUDCTL                           00000187
BCLIE                             00000003
BCLIF                             00000003
BF                                00000000
BRG0                              00000000
BRG1                              00000001
BRG10                             00000002
BRG11                             00000003
BRG12                             00000004
BRG13                             00000005
BRG14                             00000006
BRG15                             00000007
BRG16                             00000003
BRG2                              00000002
BRG3                              00000003
BRG4                              00000004
BRG5                              00000005
BRG6                              00000006
BRG7                              00000007
BRG8                              00000000
BRG9                              00000001
BRGH                              00000002
gpasm-1.4.0 #1107 (Apr  3 2018) /media/user/s   2-13-2022  18:50:34         PAGE 26


SYMBOL TABLE
  LABEL                             VALUE 

C                                 00000000
C1CH0                             00000000
C1CH1                             00000001
C1IE                              00000005
C1IF                              00000005
C1OE                              00000005
C1ON                              00000007
C1OUT                             00000006
C1POL                             00000004
C1R                               00000002
C1RSEL                            00000005
C1SEN                             00000005
C2CH0                             00000000
C2CH1                             00000001
C2IE                              00000006
C2IF                              00000006
C2OE                              00000005
C2ON                              00000007
C2OUT                             00000006
C2POL                             00000004
C2R                               00000002
C2REN                             00000004
C2RSEL                            00000004
C2SYNC                            00000000
CCP1CON                           00000017
CCP1IE                            00000002
CCP1IF                            00000002
CCP1M0                            00000000
CCP1M1                            00000001
CCP1M2                            00000002
CCP1M3                            00000003
CCP1X                             00000005
CCP1Y                             00000004
CCP2CON                           0000001D
CCP2IE                            00000000
CCP2IF                            00000000
CCP2M0                            00000000
CCP2M1                            00000001
CCP2M2                            00000002
CCP2M3                            00000003
CCP2X                             00000005
CCP2Y                             00000004
CCPR1                             00000015
CCPR1H                            00000016
CCPR1L                            00000015
CCPR2                             0000001B
CCPR2H                            0000001C
CCPR2L                            0000001B
CHS0                              00000002
CHS1                              00000003
CHS2                              00000004
CHS3                              00000005
CKE                               00000006
gpasm-1.4.0 #1107 (Apr  3 2018) /media/user/s   2-13-2022  18:50:34         PAGE 27


SYMBOL TABLE
  LABEL                             VALUE 

CKP                               00000004
CM1CON0                           00000107
CM2CON0                           00000108
CM2CON1                           00000109
CNT                               00000020
CREN                              00000004
CSRC                              00000007
D                                 00000005
D10US_START                       00000027
DATA_ADDRESS                      00000005
DC                                00000001
DC1B0                             00000004
DC1B1                             00000005
DC2B0                             00000004
DC2B1                             00000005
DELAYTEMP                         00000070
D_A                               00000005
D_NOT_A                           00000005
DelayUS0                          00000029
Delay_10US                        00000027
ECCPAS                            0000009C
ECCPAS0                           00000004
ECCPAS1                           00000005
ECCPAS2                           00000006
ECCPASE                           00000007
EEADR                             0000010D
EEADRH                            0000010F
EECON1                            0000018C
EECON2                            0000018D
EEDAT                             0000010C
EEDATA                            0000010C
EEDATH                            0000010E
EEIE                              00000004
EEIF                              00000004
EEPGD                             00000007
ENDIF4                            0000012F
ENDIF6                            00000146
ENDIF8                            000000C6
ENDIF9                            000000DD
F                                 00000001
FERR                              00000002
FSR                               00000004
FVREN                             00000000
GCEN                              00000007
GIE                               00000007
GO                                00000001
GO_DONE                           00000001
GO_NOT_DONE                       00000001
HOLD                              0000000A
HTS                               00000002
I2C_DATA                          00000005
I2C_READ                          00000002
I2C_START                         00000003
gpasm-1.4.0 #1107 (Apr  3 2018) /media/user/s   2-13-2022  18:50:34         PAGE 28


SYMBOL TABLE
  LABEL                             VALUE 

I2C_STOP                          00000004
INDF                              00000000
INITSOUND                         0000002E
INITSYS                           00000034
INTCON                            0000000B
INTE                              00000004
INTEDG                            00000006
INTF                              00000001
IOCB                              00000096
IOCB0                             00000000
IOCB1                             00000001
IOCB2                             00000002
IOCB3                             00000003
IOCB4                             00000004
IOCB5                             00000005
IOCB6                             00000006
IOCB7                             00000007
IRCF0                             00000004
IRCF1                             00000005
IRCF2                             00000006
IRP                               00000007
LTS                               00000001
MARY                              00000049
MARY_H                            00000077
MC1OUT                            00000007
MC2OUT                            00000006
MSK                               00000093
MSK0                              00000000
MSK1                              00000001
MSK2                              00000002
MSK3                              00000003
MSK4                              00000004
MSK5                              00000005
MSK6                              00000006
MSK7                              00000007
NOTE                              00000021
NOTE_H                            00000022
NOT_A                             00000005
NOT_ADDRESS                       00000005
NOT_BO                            00000000
NOT_BOR                           00000000
NOT_DONE                          00000001
NOT_PD                            00000003
NOT_POR                           00000001
NOT_RBPU                          00000007
NOT_RC8                           00000006
NOT_T1SYNC                        00000002
NOT_TO                            00000004
NOT_TX8                           00000006
NOT_W                             00000002
NOT_WRITE                         00000002
OERR                              00000001
OPTION_REG                        00000081
gpasm-1.4.0 #1107 (Apr  3 2018) /media/user/s   2-13-2022  18:50:34         PAGE 29


SYMBOL TABLE
  LABEL                             VALUE 

OSCCON                            0000008F
OSCTUNE                           00000090
OSFIE                             00000007
OSFIF                             00000007
OSTS                              00000003
P                                 00000004
P1M0                              00000006
P1M1                              00000007
PCL                               00000002
PCLATH                            0000000A
PCON                              0000008E
PDC0                              00000000
PDC1                              00000001
PDC2                              00000002
PDC3                              00000003
PDC4                              00000004
PDC5                              00000005
PDC6                              00000006
PEIE                              00000006
PEN                               00000002
PIE1                              0000008C
PIE2                              0000008D
PIR1                              0000000C
PIR2                              0000000D
PORTA                             00000005
PORTB                             00000006
PORTC                             00000007
PORTE                             00000009
PR2                               00000092
PRSEN                             00000007
PS0                               00000000
PS1                               00000001
PS2                               00000002
PSA                               00000003
PSSAC0                            00000002
PSSAC1                            00000003
PSSBD0                            00000000
PSSBD1                            00000001
PSTRCON                           0000009D
PULSR                             00000002
PULSS                             00000003
PWM1CON                           0000009B
R                                 00000002
RA0                               00000000
RA1                               00000001
RA2                               00000002
RA3                               00000003
RA4                               00000004
RA5                               00000005
RA6                               00000006
RA7                               00000007
RB0                               00000000
RB1                               00000001
gpasm-1.4.0 #1107 (Apr  3 2018) /media/user/s   2-13-2022  18:50:34         PAGE 30


SYMBOL TABLE
  LABEL                             VALUE 

RB2                               00000002
RB3                               00000003
RB4                               00000004
RB5                               00000005
RB6                               00000006
RB7                               00000007
RBIE                              00000003
RBIF                              00000000
RC0                               00000000
RC1                               00000001
RC2                               00000002
RC3                               00000003
RC4                               00000004
RC5                               00000005
RC6                               00000006
RC7                               00000007
RC8_9                             00000006
RC9                               00000006
RCD8                              00000000
RCEN                              00000003
RCIDL                             00000006
RCIE                              00000005
RCIF                              00000005
RCREG                             0000001A
RCSTA                             00000018
RD                                00000000
RE3                               00000003
READ_WRITE                        00000002
RP0                               00000005
RP1                               00000006
RSEN                              00000001
RX9                               00000006
RX9D                              00000000
R_NOT_W                           00000002
R_W                               00000002
S                                 00000003
SBOREN                            00000004
SCKP                              00000004
SCS                               00000000
SEN                               00000000
SENDB                             00000003
SMP                               00000007
SPBRG                             00000099
SPBRGH                            0000009A
SPEN                              00000007
SR0                               00000006
SR1                               00000007
SRCON                             00000185
SREN                              00000005
SSPADD                            00000093
SSPBUF                            00000013
SSPCON                            00000014
SSPCON2                           00000091
gpasm-1.4.0 #1107 (Apr  3 2018) /media/user/s   2-13-2022  18:50:34         PAGE 31


SYMBOL TABLE
  LABEL                             VALUE 

SSPEN                             00000005
SSPIE                             00000003
SSPIF                             00000003
SSPM0                             00000000
SSPM1                             00000001
SSPM2                             00000002
SSPM3                             00000003
SSPMSK                            00000093
SSPOV                             00000006
SSPSTAT                           00000094
STATUS                            00000003
STRA                              00000000
STRB                              00000001
STRC                              00000002
STRD                              00000003
STRSYNC                           00000004
SWDTEN                            00000000
SYNC                              00000004
SYSBYTETEMPX                      00000070
SYSCOMPEQUAL16                    000000A5
SYSDIV16START                     000000C8
SYSDIVLOOP                        00000074
SYSDIVMULTA                       00000077
SYSDIVMULTA_H                     00000078
SYSDIVMULTB                       0000007B
SYSDIVMULTB_H                     0000007C
SYSDIVMULTX                       00000072
SYSDIVMULTX_H                     00000073
SYSDIVSUB16                       000000B0
SYSSTRINGA                        00000077
SYSTEMP1                          00000023
SYSTEMP1_H                        00000024
SYSTEMP2                          00000025
SYSWAITTEMP10US                   00000075
SYSWORDTEMPA                      00000075
SYSWORDTEMPA_H                    00000076
SYSWORDTEMPB                      00000079
SYSWORDTEMPB_H                    0000007A
SYSWORDTEMPX                      00000070
SYSWORDTEMPX_H                    00000071
SysDoLoop_E1                      00000025
SysDoLoop_S1                      0000000A
SysForLoop1                       0000000F
SysForLoop2                       0000010D
SysForLoop3                       00000110
SysForLoopEnd1                    00000024
SysForLoopEnd2                    00000146
SysForLoopEnd3                    0000012F
T0CS                              00000005
T0IE                              00000005
T0IF                              00000002
T0SE                              00000004
T1CKPS0                           00000004
gpasm-1.4.0 #1107 (Apr  3 2018) /media/user/s   2-13-2022  18:50:34         PAGE 32


SYMBOL TABLE
  LABEL                             VALUE 

T1CKPS1                           00000005
T1CON                             00000010
T1GINV                            00000007
T1GIV                             00000007
T1GSS                             00000001
T1INSYNC                          00000002
T1OSCEN                           00000003
T1SYNC                            00000002
T2CKPS0                           00000000
T2CKPS1                           00000001
T2CON                             00000012
TABLEMARY                         00000056
TABLEMARY_H                       00000084
TMR0                              00000001
TMR0IE                            00000005
TMR0IF                            00000002
TMR1                              0000000E
TMR1CS                            00000001
TMR1GE                            00000006
TMR1H                             0000000F
TMR1IE                            00000000
TMR1IF                            00000000
TMR1L                             0000000E
TMR1ON                            00000000
TMR2                              00000011
TMR2IE                            00000001
TMR2IF                            00000001
TMR2ON                            00000002
TONE                              000000E8
TONEDURATION                      00000026
TONEDURATION_H                    00000027
TONEFREQUENCY                     00000028
TONEFREQUENCY_H                   00000029
TONELOOP                          0000002A
TONELOOP2                         0000002C
TONELOOP2_H                       0000002D
TONELOOP_H                        0000002B
TONEPERIOD                        0000002E
TONEPERIOD_H                      0000002F
TOUTPS0                           00000003
TOUTPS1                           00000004
TOUTPS2                           00000005
TOUTPS3                           00000006
TRISA                             00000085
TRISA0                            00000000
TRISA1                            00000001
TRISA2                            00000002
TRISA3                            00000003
TRISA4                            00000004
TRISA5                            00000005
TRISA6                            00000006
TRISA7                            00000007
TRISB                             00000086
gpasm-1.4.0 #1107 (Apr  3 2018) /media/user/s   2-13-2022  18:50:34         PAGE 33


SYMBOL TABLE
  LABEL                             VALUE 

TRISB0                            00000000
TRISB1                            00000001
TRISB2                            00000002
TRISB3                            00000003
TRISB4                            00000004
TRISB5                            00000005
TRISB6                            00000006
TRISB7                            00000007
TRISC                             00000087
TRISC0                            00000000
TRISC1                            00000001
TRISC2                            00000002
TRISC3                            00000003
TRISC4                            00000004
TRISC5                            00000005
TRISC6                            00000006
TRISC7                            00000007
TRISE                             00000089
TRISE3                            00000003
TRMT                              00000001
TUN0                              00000000
TUN1                              00000001
TUN2                              00000002
TUN3                              00000003
TUN4                              00000004
TX8_9                             00000006
TX9                               00000006
TX9D                              00000000
TXD8                              00000000
TXEN                              00000005
TXIE                              00000004
TXIF                              00000004
TXREG                             00000019
TXSTA                             00000098
UA                                00000001
ULPWUE                            00000005
ULPWUIE                           00000002
ULPWUIF                           00000002
VCFG0                             00000004
VCFG1                             00000005
VR0                               00000000
VR1                               00000001
VR2                               00000002
VR3                               00000003
VRCON                             00000097
VREN                              00000007
VROE                              00000006
VRR                               00000005
VRSS                              00000004
W                                 00000000
WCOL                              00000007
WDTCON                            00000105
WDTPS0                            00000001
gpasm-1.4.0 #1107 (Apr  3 2018) /media/user/s   2-13-2022  18:50:34         PAGE 34


SYMBOL TABLE
  LABEL                             VALUE 

WDTPS1                            00000002
WDTPS2                            00000003
WDTPS3                            00000004
WPUB                              00000095
WPUB0                             00000000
WPUB1                             00000001
WPUB2                             00000002
WPUB3                             00000003
WPUB4                             00000004
WPUB5                             00000005
WPUB6                             00000006
WPUB7                             00000007
WR                                00000001
WREN                              00000002
WRERR                             00000003
WUE                               00000001
Z                                 00000002
_BOR21V                           00003EFF
_BOR40V                           00003FFF
_BOR4V_BOR21V                     00003EFF
_BOR4V_BOR40V                     00003FFF
_BOREN_NSLEEP                     00003EFF
_BOREN_OFF                        00003CFF
_BOREN_ON                         00003FFF
_BOREN_SBODEN                     00003DFF
_BOR_NSLEEP                       00003EFF
_BOR_OFF                          00003CFF
_BOR_ON                           00003FFF
_BOR_SBODEN                       00003DFF
_CONFIG1                          00002007
_CONFIG2                          00002008
_CPD_OFF                          00003FFF
_CPD_ON                           00003F7F
_CP_OFF                           00003FFF
_CP_ON                            00003FBF
_DEBUG_OFF                        00003FFF
_DEBUG_ON                         00001FFF
_DEVID1                           00002006
_EC_OSC                           00003FFB
_EXTRC                            00003FFF
_EXTRCIO                          00003FFE
_EXTRC_OSC_CLKOUT                 00003FFF
_EXTRC_OSC_NOCLKOUT               00003FFE
_FCMEN_OFF                        000037FF
_FCMEN_ON                         00003FFF
_FOSC_EC                          00003FFB
_FOSC_EXTRC_CLKOUT                00003FFF
_FOSC_EXTRC_NOCLKOUT              00003FFE
_FOSC_HS                          00003FFA
_FOSC_INTRC_CLKOUT                00003FFD
_FOSC_INTRC_NOCLKOUT              00003FFC
_FOSC_LP                          00003FF8
_FOSC_XT                          00003FF9
gpasm-1.4.0 #1107 (Apr  3 2018) /media/user/s   2-13-2022  18:50:34         PAGE 35


SYMBOL TABLE
  LABEL                             VALUE 

_HS_OSC                           00003FFA
_IDLOC0                           00002000
_IDLOC1                           00002001
_IDLOC2                           00002002
_IDLOC3                           00002003
_IESO_OFF                         00003BFF
_IESO_ON                          00003FFF
_INTOSC                           00003FFD
_INTOSCIO                         00003FFC
_INTRC_OSC_CLKOUT                 00003FFD
_INTRC_OSC_NOCLKOUT               00003FFC
_LP_OSC                           00003FF8
_LVP_OFF                          00002FFF
_LVP_ON                           00003FFF
_MCLRE_OFF                        00003FDF
_MCLRE_ON                         00003FFF
_PWRTE_OFF                        00003FFF
_PWRTE_ON                         00003FEF
_WDTE_OFF                         00003FF7
_WDTE_ON                          00003FFF
_WDT_OFF                          00003FF7
_WDT_ON                           00003FFF
_WRT_1FOURTH                      00003BFF
_WRT_256                          00003DFF
_WRT_HALF                         000039FF
_WRT_OFF                          00003FFF
_XT_OSC                           00003FF9
__16F886                          00000001
__CODE_END                        00001FFF
__CODE_START                      00000000
__COMMON_RAM_END                  0000007F
__COMMON_RAM_START                00000070
__EEPROM_END                      000021FF
__EEPROM_START                    00002100
__VECTOR_INT                      00000004
__VECTOR_RESET                    00000000


MEMORY USAGE MAP ('X' = Used,  '-' = Unused)

0000 : XXX-XXXXXXXXXXXX XXXXXXXXXXXXXXXX XXXXXXXXXXXXXXXX XXXXXXXXXXXXXXXX
0040 : XXXXXXXXXXXXXXXX XXXXXXXXXXXXXXXX XXXXXXXXXXXXXXXX XXXXXXXXXXXXXXXX
0080 : XXXXXXXXXXXXXXXX XXXXXXXXXXXXXXXX XXXXXXXXXXXXXXXX XXXXXXXXXXXXXXXX
00C0 : XXXXXXXXXXXXXXXX XXXXXXXXXXXXXXXX XXXXXXXXXXXXXXXX XXXXXXXXXXXXXXXX
0100 : XXXXXXXXXXXXXXXX XXXXXXXXXXXXXXXX XXXXXXXXXXXXXXXX XXXXXXXXXXXXXXXX
0140 : XXXXXXX--------- ---------------- ---------------- ----------------
2000 : -------XX------- ---------------- ---------------- ----------------

All other memory blocks unused.

Program Memory Words Used:   326
Program Memory Words Free:  7866


gpasm-1.4.0 #1107 (Apr  3 2018) /media/user/s   2-13-2022  18:50:34         PAGE 36




Errors   :     0
Warnings :     1 reported,     0 suppressed
Messages :     0 reported,     7 suppressed

